; Function Attrs: nounwind null_pointer_is_valid sspstrong uwtable
define void @ws_dissector_bug(ptr noundef %0, ...) local_unnamed_addr #0 {
  %2 = alloca [1 x %struct.__va_list_tag], align 16
  call void @llvm.lifetime.start.p0(i64 24, ptr nonnull %2) #17
  call void @llvm.va_start.p0(ptr nonnull %2)
  %3 = load ptr, ptr @stderr, align 8
  %4 = call i32 @__vfprintf_chk(ptr noundef %3, i32 noundef 2, ptr noundef %0, ptr noundef nonnull %2) #17
  call void @llvm.va_end.p0(ptr nonnull %2)
  %5 = load i8, ptr @wireshark_abort_on_dissector_bug, align 1, !range !6, !noundef !7
  %6 = trunc nuw i8 %5 to i1
  br i1 %6, label %7, label %8

7:                                                ; preds = %1
  call void @abort() #18
  unreachable

8:                                                ; preds = %1
  call void @llvm.lifetime.end.p0(i64 24, ptr nonnull %2) #17
  ret void
}